; ModuleID = '15/2352.c'
source_filename = "15/2352.c"
target datalayout = "e-m:e-p270:32:32-p271:32:32-p272:64:64-i64:64-f80:128-n8:16:32:64-S128"
target triple = "x86_64-pc-linux-gnu"

@.str = private unnamed_addr constant [3 x i8] c"%d\00", align 1

; Function Attrs: noinline nounwind uwtable
define dso_local i32 @main() #0 {
  %1 = alloca i32, align 4
  %2 = alloca i32, align 4
  %3 = alloca i32, align 4
  %4 = alloca i32, align 4
  %5 = alloca i32, align 4
  %6 = alloca i32, align 4
  %7 = alloca i32, align 4
  %8 = alloca i32, align 4
  %9 = alloca i32, align 4
  store i32 0, i32* %1, align 4
  store i32 0, i32* %5, align 4
  store i32 0, i32* %6, align 4
  store i32 0, i32* %7, align 4
  %10 = call i32 (i8*, ...) @__isoc99_scanf(i8* getelementptr inbounds ([3 x i8], [3 x i8]* @.str, i64 0, i64 0), i32* %8)
  store i32 1, i32* %2, align 4
  br label %11

11:                                               ; preds = %40, %0
  %12 = load i32, i32* %2, align 4
  %13 = load i32, i32* %8, align 4
  %14 = icmp sle i32 %12, %13
  br i1 %14, label %15, label %43

15:                                               ; preds = %11
  store i32 1, i32* %3, align 4
  br label %16

16:                                               ; preds = %28, %15
  %17 = load i32, i32* %3, align 4
  %18 = load i32, i32* %8, align 4
  %19 = icmp sle i32 %17, %18
  br i1 %19, label %20, label %31

20:                                               ; preds = %16
  %21 = call i32 (i8*, ...) @__isoc99_scanf(i8* getelementptr inbounds ([3 x i8], [3 x i8]* @.str, i64 0, i64 0), i32* %9)
  %22 = load i32, i32* %9, align 4
  %23 = icmp eq i32 %22, 0
  br i1 %23, label %24, label %27

24:                                               ; preds = %20
  %25 = load i32, i32* %7, align 4
  %26 = add nsw i32 %25, 1
  store i32 %26, i32* %7, align 4
  br label %27

27:                                               ; preds = %24, %20
  br label %28

28:                                               ; preds = %27
  %29 = load i32, i32* %3, align 4
  %30 = add nsw i32 %29, 1
  store i32 %30, i32* %3, align 4
  br label %16

31:                                               ; preds = %16
  %32 = load i32, i32* %7, align 4
  %33 = load i32, i32* %5, align 4
  %34 = icmp ne i32 %32, %33
  br i1 %34, label %35, label %39

35:                                               ; preds = %31
  %36 = load i32, i32* %6, align 4
  %37 = add nsw i32 %36, 1
  store i32 %37, i32* %6, align 4
  %38 = load i32, i32* %7, align 4
  store i32 %38, i32* %5, align 4
  br label %39

39:                                               ; preds = %35, %31
  br label %40

40:                                               ; preds = %39
  %41 = load i32, i32* %2, align 4
  %42 = add nsw i32 %41, 1
  store i32 %42, i32* %2, align 4
  br label %11

43:                                               ; preds = %11
  %44 = load i32, i32* %6, align 4
  %45 = sub nsw i32 %44, 2
  %46 = load i32, i32* %7, align 4
  %47 = sdiv i32 %46, 2
  %48 = load i32, i32* %6, align 4
  %49 = sub nsw i32 %47, %48
  %50 = mul nsw i32 %45, %49
  store i32 %50, i32* %4, align 4
  %51 = load i32, i32* %4, align 4
  %52 = call i32 (i8*, ...) @printf(i8* getelementptr inbounds ([3 x i8], [3 x i8]* @.str, i64 0, i64 0), i32 %51)
  %53 = load i32, i32* %1, align 4
  ret i32 %53
}

declare dso_local i32 @__isoc99_scanf(i8*, ...) #1

declare dso_local i32 @printf(i8*, ...) #1


!llvm.module.flags = !{!0}
!llvm.ident = !{!1}

!0 = !{i32 1, !"wchar_size", i32 4}
!1 = !{!"clang version 10.0.0-4ubuntu1 "}
